target datalayout = "e-m:e-p270:32:32-p271:32:32-p272:64:64-i64:64-i128:128-f80:128-n8:16:32:64-S128"
target triple = "x86_64-pc-linux-gnu"

%struct._zval_struct = type { %union._zend_value, %union.anon, %union.anon.2 }
%union._zend_value = type { i64 }
%union.anon = type { i32 }
%union.anon.2 = type { i32 }
%struct._zend_array = type { %struct._zend_refcounted_h, %union.anon.4, i32, %union.anon.6, i32, i32, i32, i32, i64, ptr }
%struct._zend_refcounted_h = type { i32, %union.anon.3 }
%union.anon.3 = type { i32 }
%union.anon.4 = type { i32 }
%union.anon.6 = type { ptr }
%struct._zend_reference = type { %struct._zend_refcounted_h, %struct._zval_struct, %union.zend_property_info_source_list }
%union.zend_property_info_source_list = type { ptr }
%struct._Bucket = type { %struct._zval_struct, i64, ptr }
%struct.fd_set = type { [16 x i64] }

@.str.6 = private unnamed_addr constant [7 x i8] c"stream\00", align 1

; Function Attrs: nounwind uwtable
define internal i32 @stream_array_from_fd_set(ptr noundef %0, ptr noundef %1) #0 {
  %3 = alloca ptr, align 8
  %4 = alloca ptr, align 8
  %5 = alloca ptr, align 8
  %6 = alloca ptr, align 8
  %7 = alloca i32, align 4
  %8 = alloca ptr, align 8
  %9 = alloca ptr, align 8
  %10 = alloca ptr, align 8
  %11 = alloca ptr, align 8
  %12 = alloca ptr, align 8
  %13 = alloca ptr, align 8
  %14 = alloca i32, align 4
  %15 = alloca ptr, align 8
  %16 = alloca i64, align 8
  %17 = alloca ptr, align 8
  %18 = alloca i64, align 8
  %19 = alloca ptr, align 8
  %20 = alloca i32, align 4
  %21 = alloca i64, align 8
  %22 = alloca ptr, align 8
  %23 = alloca i32, align 4
  %24 = alloca ptr, align 8
  %25 = alloca ptr, align 8
  %26 = alloca i32, align 4
  %27 = alloca ptr, align 8
  %28 = alloca ptr, align 8
  store ptr %0, ptr %8, align 8
  store ptr %1, ptr %9, align 8
  store i32 0, ptr %14, align 4
  %29 = load ptr, ptr %8, align 8
  store ptr %29, ptr %4, align 8
  %30 = load ptr, ptr %4, align 8
  %31 = getelementptr inbounds %struct._zval_struct, ptr %30, i32 0, i32 1
  %32 = load i8, ptr %31, align 8
  %33 = zext i8 %32 to i32
  %34 = icmp ne i32 %33, 7
  br i1 %34, label %35, label %36

35:                                               ; preds = %2
  store i32 0, ptr %7, align 4
  br label %199

36:                                               ; preds = %2
  %37 = load ptr, ptr %8, align 8
  %38 = getelementptr inbounds %struct._zval_struct, ptr %37, i32 0, i32 0
  %39 = load ptr, ptr %38, align 8
  store ptr %39, ptr %3, align 8
  %40 = load ptr, ptr %3, align 8
  %41 = getelementptr inbounds %struct._zend_array, ptr %40, i32 0, i32 5
  %42 = load i32, ptr %41, align 4
  %43 = call ptr @_zend_new_array(i32 noundef %42)
  store ptr %43, ptr %12, align 8
  br label %44

44:                                               ; preds = %36
  %45 = load ptr, ptr %8, align 8
  %46 = getelementptr inbounds %struct._zval_struct, ptr %45, i32 0, i32 0
  %47 = load ptr, ptr %46, align 8
  store ptr %47, ptr %17, align 8
  store ptr null, ptr %19, align 8
  store i32 0, ptr %20, align 4
  %48 = load ptr, ptr %17, align 8
  %49 = getelementptr inbounds %struct._zend_array, ptr %48, i32 0, i32 1
  %50 = load i32, ptr %49, align 8
  %51 = xor i32 %50, -1
  %52 = and i32 %51, 4
  %53 = zext i32 %52 to i64
  %54 = mul i64 %53, 4
  %55 = add i64 16, %54
  store i64 %55, ptr %21, align 8
  %56 = load ptr, ptr %17, align 8
  %57 = getelementptr inbounds %struct._zend_array, ptr %56, i32 0, i32 3
  %58 = load ptr, ptr %57, align 8
  %59 = load i32, ptr %20, align 4
  %60 = zext i32 %59 to i64
  %61 = load i64, ptr %21, align 8
  %62 = mul i64 %60, %61
  %63 = getelementptr inbounds i8, ptr %58, i64 %62
  store ptr %63, ptr %22, align 8
  %64 = load ptr, ptr %17, align 8
  %65 = getelementptr inbounds %struct._zend_array, ptr %64, i32 0, i32 4
  %66 = load i32, ptr %65, align 8
  %67 = load i32, ptr %20, align 4
  %68 = sub i32 %66, %67
  store i32 %68, ptr %23, align 4
  br label %69

69:                                               ; preds = %183, %44
  %70 = load i32, ptr %23, align 4
  %71 = icmp ugt i32 %70, 0
  br i1 %71, label %72, label %186

72:                                               ; preds = %69
  %73 = load ptr, ptr %22, align 8
  store ptr %73, ptr %24, align 8
  %74 = load ptr, ptr %17, align 8
  %75 = getelementptr inbounds %struct._zend_array, ptr %74, i32 0, i32 1
  %76 = load i32, ptr %75, align 8
  %77 = and i32 %76, 4
  %78 = icmp ne i32 %77, 0
  br i1 %78, label %79, label %86

79:                                               ; preds = %72
  %80 = load ptr, ptr %22, align 8
  %81 = getelementptr inbounds %struct._zval_struct, ptr %80, i32 1
  store ptr %81, ptr %22, align 8
  %82 = load i32, ptr %20, align 4
  %83 = zext i32 %82 to i64
  store i64 %83, ptr %18, align 8
  %84 = load i32, ptr %20, align 4
  %85 = add i32 %84, 1
  store i32 %85, ptr %20, align 4
  br label %97

86:                                               ; preds = %72
  %87 = load ptr, ptr %22, align 8
  store ptr %87, ptr %25, align 8
  %88 = load ptr, ptr %25, align 8
  %89 = getelementptr inbounds %struct._Bucket, ptr %88, i64 1
  %90 = getelementptr inbounds %struct._Bucket, ptr %89, i32 0, i32 0
  store ptr %90, ptr %22, align 8
  %91 = load ptr, ptr %25, align 8
  %92 = getelementptr inbounds %struct._Bucket, ptr %91, i32 0, i32 1
  %93 = load i64, ptr %92, align 8
  store i64 %93, ptr %18, align 8
  %94 = load ptr, ptr %25, align 8
  %95 = getelementptr inbounds %struct._Bucket, ptr %94, i32 0, i32 2
  %96 = load ptr, ptr %95, align 8
  store ptr %96, ptr %19, align 8
  br label %97

97:                                               ; preds = %86, %79
  %98 = load ptr, ptr %24, align 8
  store ptr %98, ptr %5, align 8
  %99 = load ptr, ptr %5, align 8
  %100 = getelementptr inbounds %struct._zval_struct, ptr %99, i32 0, i32 1
  %101 = load i8, ptr %100, align 8
  %102 = zext i8 %101 to i32
  %103 = icmp eq i32 %102, 0
  %104 = xor i1 %103, true
  %105 = xor i1 %104, true
  %106 = zext i1 %105 to i32
  %107 = sext i32 %106 to i64
  %108 = icmp ne i64 %107, 0
  br i1 %108, label %109, label %110

109:                                              ; preds = %97
  br label %183

110:                                              ; preds = %97
  %111 = load i64, ptr %18, align 8
  store i64 %111, ptr %16, align 8
  %112 = load ptr, ptr %19, align 8
  store ptr %112, ptr %15, align 8
  %113 = load ptr, ptr %24, align 8
  store ptr %113, ptr %10, align 8
  br label %114

114:                                              ; preds = %110
  %115 = load ptr, ptr %10, align 8
  store ptr %115, ptr %6, align 8
  %116 = load ptr, ptr %6, align 8
  %117 = getelementptr inbounds %struct._zval_struct, ptr %116, i32 0, i32 1
  %118 = load i8, ptr %117, align 8
  %119 = zext i8 %118 to i32
  %120 = icmp eq i32 %119, 10
  %121 = xor i1 %120, true
  %122 = xor i1 %121, true
  %123 = zext i1 %122 to i32
  %124 = sext i32 %123 to i64
  %125 = icmp ne i64 %124, 0
  br i1 %125, label %126, label %131

126:                                              ; preds = %114
  %127 = load ptr, ptr %10, align 8
  %128 = getelementptr inbounds %struct._zval_struct, ptr %127, i32 0, i32 0
  %129 = load ptr, ptr %128, align 8
  %130 = getelementptr inbounds %struct._zend_reference, ptr %129, i32 0, i32 1
  store ptr %130, ptr %10, align 8
  br label %131

131:                                              ; preds = %126, %114
  br label %132

132:                                              ; preds = %131
  %133 = load ptr, ptr %10, align 8
  %134 = call i32 @php_file_le_stream()
  %135 = call i32 @php_file_le_pstream()
  %136 = call ptr @zend_fetch_resource2_ex(ptr noundef %133, ptr noundef @.str.6, i32 noundef %134, i32 noundef %135)
  store ptr %136, ptr %13, align 8
  %137 = load ptr, ptr %13, align 8
  %138 = icmp eq ptr %137, null
  br i1 %138, label %139, label %140

139:                                              ; preds = %132
  br label %183

140:                                              ; preds = %132
  %141 = load ptr, ptr %13, align 8
  %142 = call i32 @_php_stream_cast(ptr noundef %141, i32 noundef 536870915, ptr noundef %26, i32 noundef 1)
  %143 = icmp eq i32 0, %142
  br i1 %143, label %144, label %182

144:                                              ; preds = %140
  %145 = load i32, ptr %26, align 4
  %146 = icmp ne i32 %145, -1
  br i1 %146, label %147, label %182

147:                                              ; preds = %144
  %148 = load i32, ptr %26, align 4
  %149 = icmp slt i32 %148, 1024
  br i1 %149, label %150, label %181

150:                                              ; preds = %147
  %151 = load ptr, ptr %9, align 8
  %152 = getelementptr inbounds %struct.fd_set, ptr %151, i32 0, i32 0
  %153 = load i32, ptr %26, align 4
  %154 = sdiv i32 %153, 64
  %155 = sext i32 %154 to i64
  %156 = getelementptr inbounds [16 x i64], ptr %152, i64 0, i64 %155
  %157 = load i64, ptr %156, align 8
  %158 = load i32, ptr %26, align 4
  %159 = srem i32 %158, 64
  %160 = zext i32 %159 to i64
  %161 = shl i64 1, %160
  %162 = and i64 %157, %161
  %163 = icmp ne i64 %162, 0
  br i1 %163, label %164, label %181

164:                                              ; preds = %150
  %165 = load ptr, ptr %15, align 8
  %166 = icmp ne ptr %165, null
  br i1 %166, label %172, label %167

167:                                              ; preds = %164
  %168 = load ptr, ptr %12, align 8
  %169 = load i64, ptr %16, align 8
  %170 = load ptr, ptr %10, align 8
  %171 = call ptr @zend_hash_index_update(ptr noundef %168, i64 noundef %169, ptr noundef %170)
  store ptr %171, ptr %11, align 8
  br label %177

172:                                              ; preds = %164
  %173 = load ptr, ptr %12, align 8
  %174 = load ptr, ptr %15, align 8
  %175 = load ptr, ptr %10, align 8
  %176 = call ptr @zend_hash_update(ptr noundef %173, ptr noundef %174, ptr noundef %175)
  store ptr %176, ptr %11, align 8
  br label %177

177:                                              ; preds = %172, %167
  %178 = load ptr, ptr %11, align 8
  call void @zval_add_ref(ptr noundef %178)
  %179 = load i32, ptr %14, align 4
  %180 = add nsw i32 %179, 1
  store i32 %180, ptr %14, align 4
  br label %183

181:                                              ; preds = %150, %147
  br label %182

182:                                              ; preds = %181, %144, %140
  br label %183

183:                                              ; preds = %182, %177, %139, %109
  %184 = load i32, ptr %23, align 4
  %185 = add i32 %184, -1
  store i32 %185, ptr %23, align 4
  br label %69

186:                                              ; preds = %69
  br label %187

187:                                              ; preds = %186
  %188 = load ptr, ptr %8, align 8
  call void @zval_ptr_dtor(ptr noundef %188)
  br label %189

189:                                              ; preds = %187
  %190 = load ptr, ptr %12, align 8
  store ptr %190, ptr %27, align 8
  %191 = load ptr, ptr %8, align 8
  store ptr %191, ptr %28, align 8
  %192 = load ptr, ptr %27, align 8
  %193 = load ptr, ptr %28, align 8
  %194 = getelementptr inbounds %struct._zval_struct, ptr %193, i32 0, i32 0
  store ptr %192, ptr %194, align 8
  %195 = load ptr, ptr %28, align 8
  %196 = getelementptr inbounds %struct._zval_struct, ptr %195, i32 0, i32 1
  store i32 775, ptr %196, align 8
  br label %197

197:                                              ; preds = %189
  %198 = load i32, ptr %14, align 4
  store i32 %198, ptr %7, align 4
  br label %199

199:                                              ; preds = %197, %35
  %200 = load i32, ptr %7, align 4
  ret i32 %200
}