; Function Attrs: nounwind uwtable
define internal fastcc void @stream_array_from_fd_set(ptr noundef %0, ptr nocapture noundef readonly %1) unnamed_addr #0 {
  %3 = alloca i32, align 4
  %4 = getelementptr inbounds i8, ptr %0, i64 8
  %5 = load i8, ptr %4, align 8
  %.not = icmp eq i8 %5, 7
  br i1 %.not, label %6, label %64

6:                                                ; preds = %2
  %7 = load ptr, ptr %0, align 8
  %8 = getelementptr inbounds i8, ptr %7, i64 28
  %9 = load i32, ptr %8, align 4
  %10 = tail call ptr @_zend_new_array(i32 noundef %9) #10
  %11 = load ptr, ptr %0, align 8
  %12 = getelementptr inbounds i8, ptr %11, i64 8
  %13 = getelementptr inbounds i8, ptr %11, i64 24
  %14 = load i32, ptr %13, align 8
  %.not6771 = icmp eq i32 %14, 0
  br i1 %.not6771, label %._crit_edge, label %.lr.ph.preheader

.lr.ph.preheader:                                 ; preds = %6
  %15 = getelementptr inbounds i8, ptr %11, i64 16
  %16 = load ptr, ptr %15, align 8
  br label %.lr.ph

.lr.ph:                                           ; preds = %.lr.ph.preheader, %62
  %.05576 = phi i32 [ %.1, %62 ], [ 0, %.lr.ph.preheader ]
  %.05675 = phi i32 [ %63, %62 ], [ %14, %.lr.ph.preheader ]
  %.05774 = phi ptr [ %.158, %62 ], [ %16, %.lr.ph.preheader ]
  %.06073 = phi i32 [ %.161, %62 ], [ 0, %.lr.ph.preheader ]
  %.06272 = phi ptr [ %.163, %62 ], [ null, %.lr.ph.preheader ]
  %17 = load i32, ptr %12, align 8
  %18 = and i32 %17, 4
  %.not68 = icmp eq i32 %18, 0
  br i1 %.not68, label %23, label %19

19:                                               ; preds = %.lr.ph
  %20 = getelementptr inbounds i8, ptr %.05774, i64 16
  %21 = zext i32 %.06073 to i64
  %22 = add i32 %.06073, 1
  br label %29

23:                                               ; preds = %.lr.ph
  %24 = getelementptr inbounds i8, ptr %.05774, i64 32
  %25 = getelementptr inbounds i8, ptr %.05774, i64 16
  %26 = load i64, ptr %25, align 8
  %27 = getelementptr inbounds i8, ptr %.05774, i64 24
  %28 = load ptr, ptr %27, align 8
  br label %29

29:                                               ; preds = %23, %19
  %.163 = phi ptr [ %.06272, %19 ], [ %28, %23 ]
  %.161 = phi i32 [ %22, %19 ], [ %.06073, %23 ]
  %.059 = phi i64 [ %21, %19 ], [ %26, %23 ]
  %.158 = phi ptr [ %20, %19 ], [ %24, %23 ]
  %30 = getelementptr inbounds i8, ptr %.05774, i64 8
  %31 = load i8, ptr %30, align 8
  switch i8 %31, label %35 [
    i8 0, label %62
    i8 10, label %32
  ]

32:                                               ; preds = %29
  %33 = load ptr, ptr %.05774, align 8
  %34 = getelementptr inbounds i8, ptr %33, i64 8
  br label %35

35:                                               ; preds = %29, %32
  %.053 = phi ptr [ %34, %32 ], [ %.05774, %29 ]
  %36 = call i32 @php_file_le_stream() #10
  %37 = call i32 @php_file_le_pstream() #10
  %38 = call ptr @zend_fetch_resource2_ex(ptr noundef nonnull %.053, ptr noundef nonnull @.str.6, i32 noundef %36, i32 noundef %37) #10
  %39 = icmp eq ptr %38, null
  br i1 %39, label %62, label %40

40:                                               ; preds = %35
  %41 = call i32 @_php_stream_cast(ptr noundef nonnull %38, i32 noundef 536870915, ptr noundef nonnull %3, i32 noundef 1) #10
  %42 = icmp eq i32 %41, 0
  %43 = load i32, ptr %3, align 4
  %44 = icmp ne i32 %43, -1
  %or.cond = select i1 %42, i1 %44, i1 false
  %45 = icmp slt i32 %43, 1024
  %or.cond3 = select i1 %or.cond, i1 %45, i1 false
  br i1 %or.cond3, label %46, label %62

46:                                               ; preds = %40
  %47 = sdiv i32 %43, 64
  %48 = sext i32 %47 to i64
  %49 = getelementptr inbounds [16 x i64], ptr %1, i64 0, i64 %48
  %50 = load i64, ptr %49, align 8
  %51 = srem i32 %43, 64
  %52 = zext nneg i32 %51 to i64
  %53 = shl nuw i64 1, %52
  %54 = and i64 %50, %53
  %.not69 = icmp eq i64 %54, 0
  br i1 %.not69, label %62, label %55

55:                                               ; preds = %46
  %.not70 = icmp eq ptr %.163, null
  br i1 %.not70, label %56, label %58

56:                                               ; preds = %55
  %57 = call ptr @zend_hash_index_update(ptr noundef %10, i64 noundef %.059, ptr noundef nonnull %.053) #10
  br label %60

58:                                               ; preds = %55
  %59 = call ptr @zend_hash_update(ptr noundef %10, ptr noundef nonnull %.163, ptr noundef nonnull %.053) #10
  br label %60

60:                                               ; preds = %58, %56
  %.054 = phi ptr [ %59, %58 ], [ %57, %56 ]
  call void @zval_add_ref(ptr noundef %.054) #10
  %61 = add nsw i32 %.05576, 1
  br label %62

62:                                               ; preds = %29, %40, %46, %35, %60
  %.1 = phi i32 [ %.05576, %29 ], [ %.05576, %35 ], [ %61, %60 ], [ %.05576, %46 ], [ %.05576, %40 ]
  %63 = add i32 %.05675, -1
  %.not67 = icmp eq i32 %63, 0
  br i1 %.not67, label %._crit_edge, label %.lr.ph

._crit_edge:                                      ; preds = %62, %6
  call void @zval_ptr_dtor(ptr noundef nonnull %0) #10
  store ptr %10, ptr %0, align 8
  store i32 775, ptr %4, align 8
  br label %64

64:                                               ; preds = %2, %._crit_edge
  ret void
}